target datalayout = "e-m:e-p270:32:32-p271:32:32-p272:64:64-i64:64-i128:128-f80:128-n8:16:32:64-S128"
target triple = "x86_64-pc-linux-gnu"

%struct._lv_textarea_t = type { %struct._lv_obj_t, ptr, ptr, ptr, ptr, ptr, i32, i32, %struct.anon, i32, i32, i8 }
%struct._lv_obj_t = type { ptr, ptr, ptr, ptr, ptr, %struct.lv_area_t, i32, i16, i16 }
%struct.lv_area_t = type { i32, i32, i32, i32 }
%struct.anon = type { i32, i32, %struct.lv_area_t, i32, i8 }

@lv_text_encoded_next = external constant ptr, align 8
@lv_text_unicode_to_encoded = external constant ptr, align 8
@.str.1 = private unnamed_addr constant [1 x i8] zeroinitializer, align 1

; Function Attrs: nounwind uwtable
define i32 @lv_textarea_get_max_length(ptr noundef %0) #0 {
  %2 = alloca ptr, align 8
  %3 = alloca ptr, align 8
  store ptr %0, ptr %2, align 8, !tbaa !8
  br label %4

4:                                                ; preds = %1
  %5 = load ptr, ptr %2, align 8, !tbaa !8
  %6 = icmp ne ptr %5, null
  br i1 %6, label %11, label %7

7:                                                ; preds = %4
  br label %8

8:                                                ; preds = %7
  br label %9

9:                                                ; preds = %8
  br label %10

10:                                               ; preds = %9, %10
  br label %10

11:                                               ; preds = %4
  br label %12

12:                                               ; preds = %11
  call void @llvm.lifetime.start.p0(i64 8, ptr %3) #6
  %13 = load ptr, ptr %2, align 8, !tbaa !8
  store ptr %13, ptr %3, align 8, !tbaa !10
  %14 = load ptr, ptr %3, align 8, !tbaa !10
  %15 = getelementptr inbounds nuw %struct._lv_textarea_t, ptr %14, i32 0, i32 6
  %16 = load i32, ptr %15, align 8, !tbaa !25
  call void @llvm.lifetime.end.p0(i64 8, ptr %3) #6
  ret i32 %16
}

; Function Attrs: nounwind uwtable
define ptr @lv_textarea_get_accepted_chars(ptr noundef %0) #0 {
  %2 = alloca ptr, align 8
  %3 = alloca ptr, align 8
  store ptr %0, ptr %2, align 8, !tbaa !8
  br label %4

4:                                                ; preds = %1
  %5 = load ptr, ptr %2, align 8, !tbaa !8
  %6 = icmp ne ptr %5, null
  br i1 %6, label %11, label %7

7:                                                ; preds = %4
  br label %8

8:                                                ; preds = %7
  br label %9

9:                                                ; preds = %8
  br label %10

10:                                               ; preds = %9, %10
  br label %10

11:                                               ; preds = %4
  br label %12

12:                                               ; preds = %11
  call void @llvm.lifetime.start.p0(i64 8, ptr %3) #6
  %13 = load ptr, ptr %2, align 8, !tbaa !8
  store ptr %13, ptr %3, align 8, !tbaa !10
  %14 = load ptr, ptr %3, align 8, !tbaa !10
  %15 = getelementptr inbounds nuw %struct._lv_textarea_t, ptr %14, i32 0, i32 5
  %16 = load ptr, ptr %15, align 8, !tbaa !24
  call void @llvm.lifetime.end.p0(i64 8, ptr %3) #6
  ret ptr %16
}

; Function Attrs: nounwind uwtable
define void @lv_textarea_clear_selection(ptr noundef %0) #0 {
  %2 = alloca ptr, align 8
  %3 = alloca ptr, align 8
  store ptr %0, ptr %2, align 8, !tbaa !8
  br label %4

4:                                                ; preds = %1
  %5 = load ptr, ptr %2, align 8, !tbaa !8
  %6 = icmp ne ptr %5, null
  br i1 %6, label %11, label %7

7:                                                ; preds = %4
  br label %8

8:                                                ; preds = %7
  br label %9

9:                                                ; preds = %8
  br label %10

10:                                               ; preds = %9, %10
  br label %10

11:                                               ; preds = %4
  br label %12

12:                                               ; preds = %11
  call void @llvm.lifetime.start.p0(i64 8, ptr %3) #6
  %13 = load ptr, ptr %2, align 8, !tbaa !8
  store ptr %13, ptr %3, align 8, !tbaa !10
  %14 = load ptr, ptr %3, align 8, !tbaa !10
  %15 = getelementptr inbounds nuw %struct._lv_textarea_t, ptr %14, i32 0, i32 1
  %16 = load ptr, ptr %15, align 8, !tbaa !28
  %17 = call i32 @lv_label_get_text_selection_start(ptr noundef %16)
  %18 = icmp ne i32 %17, 65535
  br i1 %18, label %25, label %19

19:                                               ; preds = %12
  %20 = load ptr, ptr %3, align 8, !tbaa !10
  %21 = getelementptr inbounds nuw %struct._lv_textarea_t, ptr %20, i32 0, i32 1
  %22 = load ptr, ptr %21, align 8, !tbaa !28
  %23 = call i32 @lv_label_get_text_selection_end(ptr noundef %22)
  %24 = icmp ne i32 %23, 65535
  br i1 %24, label %25, label %32

25:                                               ; preds = %19, %12
  %26 = load ptr, ptr %3, align 8, !tbaa !10
  %27 = getelementptr inbounds nuw %struct._lv_textarea_t, ptr %26, i32 0, i32 1
  %28 = load ptr, ptr %27, align 8, !tbaa !28
  call void @lv_label_set_text_selection_start(ptr noundef %28, i32 noundef 65535)
  %29 = load ptr, ptr %3, align 8, !tbaa !10
  %30 = getelementptr inbounds nuw %struct._lv_textarea_t, ptr %29, i32 0, i32 1
  %31 = load ptr, ptr %30, align 8, !tbaa !28
  call void @lv_label_set_text_selection_end(ptr noundef %31, i32 noundef 65535)
  br label %32

32:                                               ; preds = %25, %19
  call void @llvm.lifetime.end.p0(i64 8, ptr %3) #6
  ret void
}

; Function Attrs: nounwind uwtable
define void @lv_textarea_set_text(ptr noundef %0, ptr noundef %1) #0 {
  %3 = alloca ptr, align 8
  %4 = alloca ptr, align 8
  %5 = alloca ptr, align 8
  %6 = alloca i32, align 4
  %7 = alloca i32, align 4
  %8 = alloca ptr, align 8
  %9 = alloca i32, align 4
  store ptr %0, ptr %3, align 8, !tbaa !8
  store ptr %1, ptr %4, align 8, !tbaa !33
  br label %10

10:                                               ; preds = %2
  %11 = load ptr, ptr %3, align 8, !tbaa !8
  %12 = icmp ne ptr %11, null
  br i1 %12, label %17, label %13

13:                                               ; preds = %10
  br label %14

14:                                               ; preds = %13
  br label %15

15:                                               ; preds = %14
  br label %16

16:                                               ; preds = %15, %16
  br label %16

17:                                               ; preds = %10
  br label %18

18:                                               ; preds = %17
  br label %19

19:                                               ; preds = %18
  %20 = load ptr, ptr %4, align 8, !tbaa !33
  %21 = icmp ne ptr %20, null
  br i1 %21, label %26, label %22

22:                                               ; preds = %19
  br label %23

23:                                               ; preds = %22
  br label %24

24:                                               ; preds = %23
  br label %25

25:                                               ; preds = %24, %25
  br label %25

26:                                               ; preds = %19
  br label %27

27:                                               ; preds = %26
  call void @llvm.lifetime.start.p0(i64 8, ptr %5) #6
  %28 = load ptr, ptr %3, align 8, !tbaa !8
  store ptr %28, ptr %5, align 8, !tbaa !10
  %29 = load ptr, ptr %3, align 8, !tbaa !8
  call void @lv_textarea_clear_selection(ptr noundef %29)
  %30 = load ptr, ptr %3, align 8, !tbaa !8
  %31 = call ptr @lv_textarea_get_accepted_chars(ptr noundef %30)
  %32 = icmp ne ptr %31, null
  br i1 %32, label %37, label %33

33:                                               ; preds = %27
  %34 = load ptr, ptr %3, align 8, !tbaa !8
  %35 = call i32 @lv_textarea_get_max_length(ptr noundef %34)
  %36 = icmp ne i32 %35, 0
  br i1 %36, label %37, label %71

37:                                               ; preds = %33, %27
  %38 = load ptr, ptr %5, align 8, !tbaa !10
  %39 = getelementptr inbounds nuw %struct._lv_textarea_t, ptr %38, i32 0, i32 1
  %40 = load ptr, ptr %39, align 8, !tbaa !28
  call void @lv_label_set_text(ptr noundef %40, ptr noundef @.str.1)
  %41 = load ptr, ptr %3, align 8, !tbaa !8
  call void @lv_textarea_set_cursor_pos(ptr noundef %41, i32 noundef 32767)
  %42 = load ptr, ptr %5, align 8, !tbaa !10
  %43 = getelementptr inbounds nuw %struct._lv_textarea_t, ptr %42, i32 0, i32 11
  %44 = load i8, ptr %43, align 8
  %45 = lshr i8 %44, 2
  %46 = and i8 %45, 1
  %47 = icmp ne i8 %46, 0
  br i1 %47, label %48, label %53

48:                                               ; preds = %37
  %49 = load ptr, ptr %5, align 8, !tbaa !10
  %50 = getelementptr inbounds nuw %struct._lv_textarea_t, ptr %49, i32 0, i32 3
  %51 = load ptr, ptr %50, align 8, !tbaa !12
  %52 = getelementptr inbounds i8, ptr %51, i64 0
  store i8 0, ptr %52, align 1, !tbaa !35
  br label %53

53:                                               ; preds = %48, %37
  call void @llvm.lifetime.start.p0(i64 4, ptr %6) #6
  store i32 0, ptr %6, align 4, !tbaa !32
  br label %54

54:                                               ; preds = %62, %53
  %55 = load ptr, ptr %4, align 8, !tbaa !33
  %56 = load i32, ptr %6, align 4, !tbaa !32
  %57 = zext i32 %56 to i64
  %58 = getelementptr inbounds nuw i8, ptr %55, i64 %57
  %59 = load i8, ptr %58, align 1, !tbaa !35
  %60 = sext i8 %59 to i32
  %61 = icmp ne i32 %60, 0
  br i1 %61, label %62, label %70

62:                                               ; preds = %54
  call void @llvm.lifetime.start.p0(i64 4, ptr %7) #6
  %63 = load ptr, ptr @lv_text_encoded_next, align 8, !tbaa !34
  %64 = load ptr, ptr %4, align 8, !tbaa !33
  %65 = call i32 %63(ptr noundef %64, ptr noundef %6)
  store i32 %65, ptr %7, align 4, !tbaa !32
  %66 = load ptr, ptr %3, align 8, !tbaa !8
  %67 = load ptr, ptr @lv_text_unicode_to_encoded, align 8, !tbaa !34
  %68 = load i32, ptr %7, align 4, !tbaa !32
  %69 = call i32 %67(i32 noundef %68)
  call void @lv_textarea_add_char(ptr noundef %66, i32 noundef %69)
  call void @llvm.lifetime.end.p0(i64 4, ptr %7) #6
  br label %54, !llvm.loop !47

70:                                               ; preds = %54
  call void @llvm.lifetime.end.p0(i64 4, ptr %6) #6
  br label %77

71:                                               ; preds = %33
  %72 = load ptr, ptr %5, align 8, !tbaa !10
  %73 = getelementptr inbounds nuw %struct._lv_textarea_t, ptr %72, i32 0, i32 1
  %74 = load ptr, ptr %73, align 8, !tbaa !28
  %75 = load ptr, ptr %4, align 8, !tbaa !33
  call void @lv_label_set_text(ptr noundef %74, ptr noundef %75)
  %76 = load ptr, ptr %3, align 8, !tbaa !8
  call void @lv_textarea_set_cursor_pos(ptr noundef %76, i32 noundef 32767)
  br label %77

77:                                               ; preds = %71, %70
  %78 = load ptr, ptr %5, align 8, !tbaa !10
  %79 = getelementptr inbounds nuw %struct._lv_textarea_t, ptr %78, i32 0, i32 2
  %80 = load ptr, ptr %79, align 8, !tbaa !29
  %81 = icmp ne ptr %80, null
  br i1 %81, label %82, label %95

82:                                               ; preds = %77
  call void @llvm.lifetime.start.p0(i64 8, ptr %8) #6
  %83 = load ptr, ptr %5, align 8, !tbaa !10
  %84 = getelementptr inbounds nuw %struct._lv_textarea_t, ptr %83, i32 0, i32 1
  %85 = load ptr, ptr %84, align 8, !tbaa !28
  %86 = call ptr @lv_label_get_text(ptr noundef %85)
  store ptr %86, ptr %8, align 8, !tbaa !33
  %87 = load ptr, ptr %8, align 8, !tbaa !33
  %88 = getelementptr inbounds i8, ptr %87, i64 0
  %89 = load i8, ptr %88, align 1, !tbaa !35
  %90 = sext i8 %89 to i32
  %91 = icmp eq i32 %90, 0
  br i1 %91, label %92, label %94

92:                                               ; preds = %82
  %93 = load ptr, ptr %3, align 8, !tbaa !8
  call void @lv_obj_invalidate(ptr noundef %93)
  br label %94

94:                                               ; preds = %92, %82
  call void @llvm.lifetime.end.p0(i64 8, ptr %8) #6
  br label %95

95:                                               ; preds = %94, %77
  %96 = load ptr, ptr %5, align 8, !tbaa !10
  %97 = getelementptr inbounds nuw %struct._lv_textarea_t, ptr %96, i32 0, i32 11
  %98 = load i8, ptr %97, align 8
  %99 = lshr i8 %98, 2
  %100 = and i8 %99, 1
  %101 = icmp ne i8 %100, 0
  br i1 %101, label %102, label %131

102:                                              ; preds = %95
  %103 = load ptr, ptr %5, align 8, !tbaa !10
  %104 = getelementptr inbounds nuw %struct._lv_textarea_t, ptr %103, i32 0, i32 3
  %105 = load ptr, ptr %104, align 8, !tbaa !12
  call void @lv_free(ptr noundef %105)
  %106 = load ptr, ptr %4, align 8, !tbaa !33
  %107 = call ptr @lv_strdup(ptr noundef %106)
  %108 = load ptr, ptr %5, align 8, !tbaa !10
  %109 = getelementptr inbounds nuw %struct._lv_textarea_t, ptr %108, i32 0, i32 3
  store ptr %107, ptr %109, align 8, !tbaa !12
  br label %110

110:                                              ; preds = %102
  %111 = load ptr, ptr %5, align 8, !tbaa !10
  %112 = getelementptr inbounds nuw %struct._lv_textarea_t, ptr %111, i32 0, i32 3
  %113 = load ptr, ptr %112, align 8, !tbaa !12
  %114 = icmp ne ptr %113, null
  br i1 %114, label %121, label %115

115:                                              ; preds = %110
  br label %116

116:                                              ; preds = %115
  br label %117

117:                                              ; preds = %116
  br label %118

118:                                              ; preds = %117
  br label %119

119:                                              ; preds = %120, %118
  br label %120

120:                                              ; preds = %119
  br label %119

121:                                              ; preds = %110
  br label %122

122:                                              ; preds = %121
  br label %123

123:                                              ; preds = %122
  %124 = load ptr, ptr %5, align 8, !tbaa !10
  %125 = getelementptr inbounds nuw %struct._lv_textarea_t, ptr %124, i32 0, i32 3
  %126 = load ptr, ptr %125, align 8, !tbaa !12
  %127 = icmp eq ptr %126, null
  br i1 %127, label %128, label %129

128:                                              ; preds = %123
  store i32 1, ptr %9, align 4
  br label %134

129:                                              ; preds = %123
  %130 = load ptr, ptr %3, align 8, !tbaa !8
  call void @pwd_char_hider(ptr noundef %130)
  br label %131

131:                                              ; preds = %129, %95
  %132 = load ptr, ptr %3, align 8, !tbaa !8
  %133 = call i32 @lv_obj_send_event(ptr noundef %132, i32 noundef 35, ptr noundef null)
  store i32 0, ptr %9, align 4
  br label %134

134:                                              ; preds = %131, %128
  call void @llvm.lifetime.end.p0(i64 8, ptr %5) #6
  %135 = load i32, ptr %9, align 4
  switch i32 %135, label %137 [
    i32 0, label %136
    i32 1, label %136
  ]

136:                                              ; preds = %134, %134
  ret void

137:                                              ; preds = %134
  unreachable
}