; Function Attrs: nounwind uwtable
define void @lv_textarea_set_text(ptr noundef %0, ptr noundef %1) local_unnamed_addr #0 {
  %3 = alloca i32, align 4
  %.not = icmp eq ptr %0, null
  br i1 %.not, label %.preheader, label %4

.preheader:                                       ; preds = %2, %.preheader
  br label %.preheader

4:                                                ; preds = %2
  %.not29 = icmp eq ptr %1, null
  br i1 %.not29, label %.preheader41, label %5

.preheader41:                                     ; preds = %4, %.preheader41
  br label %.preheader41

5:                                                ; preds = %4
  %6 = getelementptr inbounds nuw i8, ptr %0, i64 64
  %7 = load ptr, ptr %6, align 8, !tbaa !22
  %8 = tail call i32 @lv_label_get_text_selection_start(ptr noundef %7) #10
  %.not6.i = icmp eq i32 %8, 65535
  br i1 %.not6.i, label %9, label %12

9:                                                ; preds = %5
  %10 = load ptr, ptr %6, align 8, !tbaa !22
  %11 = tail call i32 @lv_label_get_text_selection_end(ptr noundef %10) #10
  %.not7.i = icmp eq i32 %11, 65535
  br i1 %.not7.i, label %lv_textarea_get_accepted_chars.exit, label %12

12:                                               ; preds = %9, %5
  %13 = load ptr, ptr %6, align 8, !tbaa !22
  tail call void @lv_label_set_text_selection_start(ptr noundef %13, i32 noundef 65535) #10
  %14 = load ptr, ptr %6, align 8, !tbaa !22
  tail call void @lv_label_set_text_selection_end(ptr noundef %14, i32 noundef 65535) #10
  br label %lv_textarea_get_accepted_chars.exit

lv_textarea_get_accepted_chars.exit:              ; preds = %12, %9
  %15 = getelementptr inbounds nuw i8, ptr %0, i64 96
  %16 = load ptr, ptr %15, align 8, !tbaa !18
  %.not30 = icmp eq ptr %16, null
  br i1 %.not30, label %lv_textarea_get_max_length.exit, label %19

lv_textarea_get_max_length.exit:                  ; preds = %lv_textarea_get_accepted_chars.exit
  %17 = getelementptr inbounds nuw i8, ptr %0, i64 104
  %18 = load i32, ptr %17, align 8, !tbaa !19
  %.not31 = icmp eq i32 %18, 0
  br i1 %.not31, label %38, label %19

19:                                               ; preds = %lv_textarea_get_max_length.exit, %lv_textarea_get_accepted_chars.exit
  %20 = load ptr, ptr %6, align 8, !tbaa !22
  tail call void @lv_label_set_text(ptr noundef %20, ptr noundef nonnull @.str.1) #10
  tail call void @lv_textarea_set_cursor_pos(ptr noundef nonnull %0, i32 noundef 32767)
  %21 = getelementptr inbounds nuw i8, ptr %0, i64 152
  %22 = load i8, ptr %21, align 8
  %23 = and i8 %22, 4
  %.not32 = icmp eq i8 %23, 0
  br i1 %.not32, label %27, label %24

24:                                               ; preds = %19
  %25 = getelementptr inbounds nuw i8, ptr %0, i64 80
  %26 = load ptr, ptr %25, align 8, !tbaa !23
  store i8 0, ptr %26, align 1, !tbaa !38
  br label %27

27:                                               ; preds = %24, %19
  call void @llvm.lifetime.start.p0(i64 4, ptr nonnull %3) #10
  store i32 0, ptr %3, align 4, !tbaa !26
  %28 = load i8, ptr %1, align 1, !tbaa !38
  %.not3343 = icmp eq i8 %28, 0
  br i1 %.not3343, label %._crit_edge, label %.lr.ph

.lr.ph:                                           ; preds = %27
  %29 = load ptr, ptr @lv_text_encoded_next, align 8, !tbaa !57
  %30 = load ptr, ptr @lv_text_unicode_to_encoded, align 8
  br label %31

31:                                               ; preds = %.lr.ph, %31
  %32 = call i32 %29(ptr noundef nonnull %1, ptr noundef nonnull %3) #10
  %33 = call i32 %30(i32 noundef %32) #10
  call void @lv_textarea_add_char(ptr noundef nonnull %0, i32 noundef %33)
  %34 = load i32, ptr %3, align 4, !tbaa !26
  %35 = zext i32 %34 to i64
  %36 = getelementptr inbounds nuw i8, ptr %1, i64 %35
  %37 = load i8, ptr %36, align 1, !tbaa !38
  %.not33 = icmp eq i8 %37, 0
  br i1 %.not33, label %._crit_edge, label %31, !llvm.loop !64

._crit_edge:                                      ; preds = %31, %27
  call void @llvm.lifetime.end.p0(i64 4, ptr nonnull %3) #10
  br label %40

38:                                               ; preds = %lv_textarea_get_max_length.exit
  %39 = load ptr, ptr %6, align 8, !tbaa !22
  tail call void @lv_label_set_text(ptr noundef %39, ptr noundef nonnull %1) #10
  tail call void @lv_textarea_set_cursor_pos(ptr noundef nonnull %0, i32 noundef 32767)
  br label %40

40:                                               ; preds = %38, %._crit_edge
  %41 = getelementptr inbounds nuw i8, ptr %0, i64 72
  %42 = load ptr, ptr %41, align 8, !tbaa !25
  %.not34 = icmp eq ptr %42, null
  br i1 %.not34, label %49, label %43

43:                                               ; preds = %40
  %44 = load ptr, ptr %6, align 8, !tbaa !22
  %45 = call ptr @lv_label_get_text(ptr noundef %44) #10
  %46 = load i8, ptr %45, align 1, !tbaa !38
  %47 = icmp eq i8 %46, 0
  br i1 %47, label %48, label %49

48:                                               ; preds = %43
  call void @lv_obj_invalidate(ptr noundef nonnull %0) #10
  br label %49

49:                                               ; preds = %43, %48, %40
  %50 = getelementptr inbounds nuw i8, ptr %0, i64 152
  %51 = load i8, ptr %50, align 8
  %52 = and i8 %51, 4
  %.not35 = icmp eq i8 %52, 0
  br i1 %.not35, label %58, label %53

53:                                               ; preds = %49
  %54 = getelementptr inbounds nuw i8, ptr %0, i64 80
  %55 = load ptr, ptr %54, align 8, !tbaa !23
  call void @lv_free(ptr noundef %55) #10
  %56 = call ptr @lv_strdup(ptr noundef nonnull %1) #10
  store ptr %56, ptr %54, align 8, !tbaa !23
  %.not36 = icmp eq ptr %56, null
  br i1 %.not36, label %.preheader42, label %57

.preheader42:                                     ; preds = %53, %.preheader42
  br label %.preheader42

57:                                               ; preds = %53
  call fastcc void @pwd_char_hider(ptr noundef nonnull %0)
  br label %58

58:                                               ; preds = %57, %49
  %59 = call i32 @lv_obj_send_event(ptr noundef nonnull %0, i32 noundef 35, ptr noundef null) #10
  ret void
}